target datalayout = "e-m:e-p270:32:32-p271:32:32-p272:64:64-i64:64-i128:128-f80:128-n8:16:32:64-S128"
target triple = "x86_64-unknown-linux-gnu"

%class.pdecl.base = type <{ ptr, i32, i32, i32 }>
%class.pdecl = type <{ ptr, i32, i32, i32, [4 x i8] }>
%class.psort_decl = type { %class.pdecl.base, %class.symbol, i32, ptr }
%class.symbol = type { ptr }

; Function Attrs: mustprogress nounwind uwtable
define linkonce_odr hidden void @_ZN5pdeclC2Ejj(ptr noundef nonnull align 8 dereferenceable(20) %this, i32 noundef %id, i32 noundef %num_params) unnamed_addr #5 comdat align 2 {
entry:
  %this.addr = alloca ptr, align 8
  %id.addr = alloca i32, align 4
  %num_params.addr = alloca i32, align 4
  store ptr %this, ptr %this.addr, align 8
  store i32 %id, ptr %id.addr, align 4
  store i32 %num_params, ptr %num_params.addr, align 4
  %this1 = load ptr, ptr %this.addr, align 8
  store ptr getelementptr inbounds ({ [10 x ptr] }, ptr @_ZTV5pdecl, i32 0, i32 0, i32 2), ptr %this1, align 8
  %m_id = getelementptr inbounds %class.pdecl, ptr %this1, i32 0, i32 1
  %0 = load i32, ptr %id.addr, align 4
  store i32 %0, ptr %m_id, align 8
  %m_num_params = getelementptr inbounds %class.pdecl, ptr %this1, i32 0, i32 2
  %1 = load i32, ptr %num_params.addr, align 4
  store i32 %1, ptr %m_num_params, align 4
  %m_ref_count = getelementptr inbounds %class.pdecl, ptr %this1, i32 0, i32 3
  store i32 0, ptr %m_ref_count, align 8
  ret void
}

; Function Attrs: mustprogress uwtable
define hidden void @_ZN10psort_declC2EjjR13pdecl_managerRK6symbol(ptr noundef nonnull align 8 dereferenceable(48) %this, i32 noundef %id, i32 noundef %num_params, ptr noundef nonnull align 8 dereferenceable(192) %m, ptr noundef nonnull align 8 dereferenceable(8) %n) unnamed_addr #4 align 2 {
entry:
  %this.addr = alloca ptr, align 8
  %id.addr = alloca i32, align 4
  %num_params.addr = alloca i32, align 4
  %m.addr = alloca ptr, align 8
  %n.addr = alloca ptr, align 8
  store ptr %this, ptr %this.addr, align 8
  store i32 %id, ptr %id.addr, align 4
  store i32 %num_params, ptr %num_params.addr, align 4
  store ptr %m, ptr %m.addr, align 8
  store ptr %n, ptr %n.addr, align 8
  %this1 = load ptr, ptr %this.addr, align 8
  %0 = load i32, ptr %id.addr, align 4
  %1 = load i32, ptr %num_params.addr, align 4
  call void @_ZN5pdeclC2Ejj(ptr noundef nonnull align 8 dereferenceable(20) %this1, i32 noundef %0, i32 noundef %1)
  store ptr getelementptr inbounds ({ [13 x ptr] }, ptr @_ZTV10psort_decl, i32 0, i32 0, i32 2), ptr %this1, align 8
  %m_name = getelementptr inbounds %class.psort_decl, ptr %this1, i32 0, i32 1
  %2 = load ptr, ptr %n.addr, align 8
  call void @llvm.memcpy.p0.p0.i64(ptr align 8 %m_name, ptr align 8 %2, i64 8, i1 false)
  %m_psort_kind = getelementptr inbounds %class.psort_decl, ptr %this1, i32 0, i32 2
  store i32 0, ptr %m_psort_kind, align 8
  %m_inst_cache = getelementptr inbounds %class.psort_decl, ptr %this1, i32 0, i32 3
  store ptr null, ptr %m_inst_cache, align 8
  ret void
}

; Function Attrs: mustprogress uwtable
define hidden void @_ZN19psort_type_var_declC2EjR13pdecl_managerRK6symbol(ptr noundef nonnull align 8 dereferenceable(56) %this, i32 noundef %id, ptr noundef nonnull align 8 dereferenceable(192) %m, ptr noundef nonnull align 8 dereferenceable(8) %n) unnamed_addr #4 align 2 {
entry:
  %this.addr = alloca ptr, align 8
  %id.addr = alloca i32, align 4
  %m.addr = alloca ptr, align 8
  %n.addr = alloca ptr, align 8
  store ptr %this, ptr %this.addr, align 8
  store i32 %id, ptr %id.addr, align 4
  store ptr %m, ptr %m.addr, align 8
  store ptr %n, ptr %n.addr, align 8
  %this1 = load ptr, ptr %this.addr, align 8
  %0 = load i32, ptr %id.addr, align 4
  %1 = load ptr, ptr %m.addr, align 8
  %2 = load ptr, ptr %n.addr, align 8
  call void @_ZN10psort_declC2EjjR13pdecl_managerRK6symbol(ptr noundef nonnull align 8 dereferenceable(48) %this1, i32 noundef %0, i32 noundef 0, ptr noundef nonnull align 8 dereferenceable(192) %1, ptr noundef nonnull align 8 dereferenceable(8) %2)
  store ptr getelementptr inbounds ({ [13 x ptr] }, ptr @_ZTV19psort_type_var_decl, i32 0, i32 0, i32 2), ptr %this1, align 8
  %m_psort_kind = getelementptr inbounds %class.psort_decl, ptr %this1, i32 0, i32 2
  store i32 4, ptr %m_psort_kind, align 8
  ret void
}